; Function Attrs: mustprogress nounwind uwtable
define internal fastcc void @_ZNSt8_Rb_treeIN4llvm18EquivalenceClassesINS0_12PointerUnionIJPN12_GLOBAL__N_116GlobalTypeMemberEPNS0_8MetadataEPNS3_17ICallBranchFunnelEEEESt4lessISA_EE7ECValueESE_St9_IdentityISE_ENSD_17ECValueComparatorESaISE_EE8_M_eraseEPSt13_Rb_tree_nodeISE_E(ptr noundef %0) unnamed_addr #0 align 2 {
  %.not1 = icmp eq ptr %0, null
  br i1 %.not1, label %._crit_edge, label %.lr.ph

.lr.ph:                                           ; preds = %1, %.lr.ph
  %.02 = phi ptr [ %.0.val, %.lr.ph ], [ %0, %1 ]
  %2 = getelementptr i8, ptr %.02, i64 24
  %.0.val6 = load ptr, ptr %2, align 8
  tail call fastcc void @_ZNSt8_Rb_treeIN4llvm18EquivalenceClassesINS0_12PointerUnionIJPN12_GLOBAL__N_116GlobalTypeMemberEPNS0_8MetadataEPNS3_17ICallBranchFunnelEEEESt4lessISA_EE7ECValueESE_St9_IdentityISE_ENSD_17ECValueComparatorESaISE_EE8_M_eraseEPSt13_Rb_tree_nodeISE_E(ptr noundef %.0.val6)
  %3 = getelementptr i8, ptr %.02, i64 16
  %.0.val = load ptr, ptr %3, align 8
  tail call void @_ZdlPvm(ptr noundef nonnull %.02, i64 noundef 56) #27
  %.not = icmp eq ptr %.0.val, null
  br i1 %.not, label %._crit_edge, label %.lr.ph, !llvm.loop !558

._crit_edge:                                      ; preds = %.lr.ph, %1
  ret void
}